(dp1
S'feep'
p2
(lp3
S'c'
aS'i'
aS'a'
aS'o'
asF1.23
c__builtin__
complex
p4
(F4
F5
tRp5
sI12
S'tweleve'
p6
s(I1
I2
I3
tp7
Vwer
p8
s.S'some string'
p1
.(lp1
I0
aI1
aI2
aI3
aI4
aI5
aI6
aI7
aI8
aI9
aI10
aI11
aI12
aI13
aI14
aI15
aI16
aI17
aI18
a.